target datalayout = "e-m:e-p270:32:32-p271:32:32-p272:64:64-i64:64-i128:128-f80:128-n8:16:32:64-S128"
target triple = "x86_64-pc-linux-gnu"

; Function Attrs: mustprogress nounwind uwtable
define internal noundef i32 @_ZN2cv15line_descriptorL7get2PowEi(i32 noundef %0) #4 {
  %2 = alloca i32, align 4
  store i32 %0, ptr %2, align 4
  %3 = load i32, ptr %2, align 4
  %4 = shl i32 1, %3
  ret i32 %4
}

; Function Attrs: mustprogress uwtable
define noundef zeroext i8 @_ZN2cv15line_descriptor16BinaryDescriptor16binaryConversionEPfS2_(ptr noundef nonnull align 8 dereferenceable(192) %0, ptr noundef %1, ptr noundef %2) #5 align 2 {
  %4 = alloca ptr, align 8
  %5 = alloca ptr, align 8
  %6 = alloca ptr, align 8
  %7 = alloca i8, align 1
  %8 = alloca i32, align 4
  store ptr %0, ptr %4, align 8
  store ptr %1, ptr %5, align 8
  store ptr %2, ptr %6, align 8
  store i8 0, ptr %7, align 1
  store i32 0, ptr %8, align 4
  br label %9

9:                                                ; preds = %34, %3
  %10 = load i32, ptr %8, align 4
  %11 = icmp slt i32 %10, 8
  br i1 %11, label %12, label %37

12:                                               ; preds = %9
  %13 = load ptr, ptr %5, align 8
  %14 = load i32, ptr %8, align 4
  %15 = sext i32 %14 to i64
  %16 = getelementptr inbounds float, ptr %13, i64 %15
  %17 = load float, ptr %16, align 4
  %18 = load ptr, ptr %6, align 8
  %19 = load i32, ptr %8, align 4
  %20 = sext i32 %19 to i64
  %21 = getelementptr inbounds float, ptr %18, i64 %20
  %22 = load float, ptr %21, align 4
  %23 = fcmp ogt float %17, %22
  br i1 %23, label %24, label %33

24:                                               ; preds = %12
  %25 = load i32, ptr %8, align 4
  %26 = call noundef i32 @_ZN2cv15line_descriptorL7get2PowEi(i32 noundef %25)
  %27 = trunc i32 %26 to i8
  %28 = zext i8 %27 to i32
  %29 = load i8, ptr %7, align 1
  %30 = zext i8 %29 to i32
  %31 = add nsw i32 %30, %28
  %32 = trunc i32 %31 to i8
  store i8 %32, ptr %7, align 1
  br label %33

33:                                               ; preds = %24, %12
  br label %34

34:                                               ; preds = %33
  %35 = load i32, ptr %8, align 4
  %36 = add nsw i32 %35, 1
  store i32 %36, ptr %8, align 4
  br label %9, !llvm.loop !14

37:                                               ; preds = %9
  %38 = load i8, ptr %7, align 1
  ret i8 %38
}