; Function Attrs: mustprogress nofree norecurse nosync nounwind willreturn memory(argmem: read) uwtable
define noundef zeroext i8 @_ZN2cv15line_descriptor16BinaryDescriptor16binaryConversionEPfS2_(ptr nocapture noundef nonnull readnone align 8 dereferenceable(192) %0, ptr nocapture noundef readonly %1, ptr nocapture noundef readonly %2) local_unnamed_addr #4 align 2 {
  br label %4

4:                                                ; preds = %3, %4
  %indvars.iv = phi i64 [ 0, %3 ], [ %indvars.iv.next, %4 ]
  %.089 = phi i8 [ 0, %3 ], [ %.1, %4 ]
  %5 = getelementptr inbounds float, ptr %1, i64 %indvars.iv
  %6 = load float, ptr %5, align 4
  %7 = getelementptr inbounds float, ptr %2, i64 %indvars.iv
  %8 = load float, ptr %7, align 4
  %9 = fcmp ogt float %6, %8
  %10 = trunc nuw nsw i64 %indvars.iv to i32
  %11 = shl nuw nsw i32 1, %10
  %12 = trunc nuw i32 %11 to i8
  %13 = select i1 %9, i8 %12, i8 0
  %.1 = add i8 %13, %.089
  %indvars.iv.next = add nuw nsw i64 %indvars.iv, 1
  %exitcond.not = icmp eq i64 %indvars.iv.next, 8
  br i1 %exitcond.not, label %14, label %4, !llvm.loop !38

14:                                               ; preds = %4
  ret i8 %.1
}